target datalayout = "e-m:e-p270:32:32-p271:32:32-p272:64:64-i64:64-i128:128-f80:128-n8:16:32:64-S128"
target triple = "x86_64-pc-linux-gnu"

%struct.PgStat_EntryRef = type { ptr, ptr, i32, ptr, %struct.dlist_node }
%struct.dlist_node = type { ptr, ptr }
%struct.PgStat_TableStatus = type { i32, i8, ptr, %struct.PgStat_TableCounts, ptr }
%struct.PgStat_TableCounts = type { i64, i64, i64, i64, i64, i64, i64, i64, i8, i64, i64, i64, i64, i64 }
%struct.TwoPhasePgStatRecord = type { i64, i64, i64, i64, i64, i64, i32, i8, i8 }

@MyDatabaseId = external global i32, align 4

; Function Attrs: nounwind uwtable
define internal ptr @pgstat_prep_relation_pending(i32 noundef %0, i1 noundef zeroext %1) #0 {
  %3 = alloca i32, align 4
  %4 = alloca i8, align 1
  %5 = alloca ptr, align 8
  %6 = alloca ptr, align 8
  store i32 %0, ptr %3, align 4
  %7 = zext i1 %1 to i8
  store i8 %7, ptr %4, align 1
  call void @llvm.lifetime.start.p0(i64 8, ptr %5) #6
  call void @llvm.lifetime.start.p0(i64 8, ptr %6) #6
  %8 = load i8, ptr %4, align 1, !range !4, !noundef !5
  %9 = trunc i8 %8 to i1
  br i1 %9, label %10, label %11

10:                                               ; preds = %2
  br label %13

11:                                               ; preds = %2
  %12 = load i32, ptr @MyDatabaseId, align 4
  br label %13

13:                                               ; preds = %11, %10
  %14 = phi i32 [ 0, %10 ], [ %12, %11 ]
  %15 = load i32, ptr %3, align 4
  %16 = zext i32 %15 to i64
  %17 = call ptr @pgstat_prep_pending_entry(i32 noundef 2, i32 noundef %14, i64 noundef %16, ptr noundef null)
  store ptr %17, ptr %5, align 8
  %18 = load ptr, ptr %5, align 8
  %19 = getelementptr inbounds nuw %struct.PgStat_EntryRef, ptr %18, i32 0, i32 3
  %20 = load ptr, ptr %19, align 8
  store ptr %20, ptr %6, align 8
  %21 = load i32, ptr %3, align 4
  %22 = load ptr, ptr %6, align 8
  %23 = getelementptr inbounds nuw %struct.PgStat_TableStatus, ptr %22, i32 0, i32 0
  store i32 %21, ptr %23, align 8
  %24 = load i8, ptr %4, align 1, !range !4, !noundef !5
  %25 = trunc i8 %24 to i1
  %26 = load ptr, ptr %6, align 8
  %27 = getelementptr inbounds nuw %struct.PgStat_TableStatus, ptr %26, i32 0, i32 1
  %28 = zext i1 %25 to i8
  store i8 %28, ptr %27, align 4
  %29 = load ptr, ptr %6, align 8
  call void @llvm.lifetime.end.p0(i64 8, ptr %6) #6
  call void @llvm.lifetime.end.p0(i64 8, ptr %5) #6
  ret ptr %29
}

; Function Attrs: nounwind uwtable
define dso_local void @pgstat_twophase_postcommit(i32 noundef %0, i16 noundef zeroext %1, ptr noundef %2, i32 noundef %3) #0 {
  %5 = alloca i32, align 4
  %6 = alloca i16, align 2
  %7 = alloca ptr, align 8
  %8 = alloca i32, align 4
  %9 = alloca ptr, align 8
  %10 = alloca ptr, align 8
  store i32 %0, ptr %5, align 4
  store i16 %1, ptr %6, align 2
  store ptr %2, ptr %7, align 8
  store i32 %3, ptr %8, align 4
  call void @llvm.lifetime.start.p0(i64 8, ptr %9) #6
  %11 = load ptr, ptr %7, align 8
  store ptr %11, ptr %9, align 8
  call void @llvm.lifetime.start.p0(i64 8, ptr %10) #6
  %12 = load ptr, ptr %9, align 8
  %13 = getelementptr inbounds nuw %struct.TwoPhasePgStatRecord, ptr %12, i32 0, i32 6
  %14 = load i32, ptr %13, align 8
  %15 = load ptr, ptr %9, align 8
  %16 = getelementptr inbounds nuw %struct.TwoPhasePgStatRecord, ptr %15, i32 0, i32 7
  %17 = load i8, ptr %16, align 4, !range !4, !noundef !5
  %18 = trunc i8 %17 to i1
  %19 = call ptr @pgstat_prep_relation_pending(i32 noundef %14, i1 noundef zeroext %18)
  store ptr %19, ptr %10, align 8
  %20 = load ptr, ptr %9, align 8
  %21 = getelementptr inbounds nuw %struct.TwoPhasePgStatRecord, ptr %20, i32 0, i32 0
  %22 = load i64, ptr %21, align 8
  %23 = load ptr, ptr %10, align 8
  %24 = getelementptr inbounds nuw %struct.PgStat_TableStatus, ptr %23, i32 0, i32 3
  %25 = getelementptr inbounds nuw %struct.PgStat_TableCounts, ptr %24, i32 0, i32 3
  %26 = load i64, ptr %25, align 8
  %27 = add i64 %26, %22
  store i64 %27, ptr %25, align 8
  %28 = load ptr, ptr %9, align 8
  %29 = getelementptr inbounds nuw %struct.TwoPhasePgStatRecord, ptr %28, i32 0, i32 1
  %30 = load i64, ptr %29, align 8
  %31 = load ptr, ptr %10, align 8
  %32 = getelementptr inbounds nuw %struct.PgStat_TableStatus, ptr %31, i32 0, i32 3
  %33 = getelementptr inbounds nuw %struct.PgStat_TableCounts, ptr %32, i32 0, i32 4
  %34 = load i64, ptr %33, align 8
  %35 = add i64 %34, %30
  store i64 %35, ptr %33, align 8
  %36 = load ptr, ptr %9, align 8
  %37 = getelementptr inbounds nuw %struct.TwoPhasePgStatRecord, ptr %36, i32 0, i32 2
  %38 = load i64, ptr %37, align 8
  %39 = load ptr, ptr %10, align 8
  %40 = getelementptr inbounds nuw %struct.PgStat_TableStatus, ptr %39, i32 0, i32 3
  %41 = getelementptr inbounds nuw %struct.PgStat_TableCounts, ptr %40, i32 0, i32 5
  %42 = load i64, ptr %41, align 8
  %43 = add i64 %42, %38
  store i64 %43, ptr %41, align 8
  %44 = load ptr, ptr %9, align 8
  %45 = getelementptr inbounds nuw %struct.TwoPhasePgStatRecord, ptr %44, i32 0, i32 8
  %46 = load i8, ptr %45, align 1, !range !4, !noundef !5
  %47 = trunc i8 %46 to i1
  %48 = load ptr, ptr %10, align 8
  %49 = getelementptr inbounds nuw %struct.PgStat_TableStatus, ptr %48, i32 0, i32 3
  %50 = getelementptr inbounds nuw %struct.PgStat_TableCounts, ptr %49, i32 0, i32 8
  %51 = zext i1 %47 to i8
  store i8 %51, ptr %50, align 8
  %52 = load ptr, ptr %9, align 8
  %53 = getelementptr inbounds nuw %struct.TwoPhasePgStatRecord, ptr %52, i32 0, i32 8
  %54 = load i8, ptr %53, align 1, !range !4, !noundef !5
  %55 = trunc i8 %54 to i1
  br i1 %55, label %56, label %63

56:                                               ; preds = %4
  %57 = load ptr, ptr %10, align 8
  %58 = getelementptr inbounds nuw %struct.PgStat_TableStatus, ptr %57, i32 0, i32 3
  %59 = getelementptr inbounds nuw %struct.PgStat_TableCounts, ptr %58, i32 0, i32 9
  store i64 0, ptr %59, align 8
  %60 = load ptr, ptr %10, align 8
  %61 = getelementptr inbounds nuw %struct.PgStat_TableStatus, ptr %60, i32 0, i32 3
  %62 = getelementptr inbounds nuw %struct.PgStat_TableCounts, ptr %61, i32 0, i32 10
  store i64 0, ptr %62, align 8
  br label %63

63:                                               ; preds = %56, %4
  %64 = load ptr, ptr %9, align 8
  %65 = getelementptr inbounds nuw %struct.TwoPhasePgStatRecord, ptr %64, i32 0, i32 0
  %66 = load i64, ptr %65, align 8
  %67 = load ptr, ptr %9, align 8
  %68 = getelementptr inbounds nuw %struct.TwoPhasePgStatRecord, ptr %67, i32 0, i32 2
  %69 = load i64, ptr %68, align 8
  %70 = sub i64 %66, %69
  %71 = load ptr, ptr %10, align 8
  %72 = getelementptr inbounds nuw %struct.PgStat_TableStatus, ptr %71, i32 0, i32 3
  %73 = getelementptr inbounds nuw %struct.PgStat_TableCounts, ptr %72, i32 0, i32 9
  %74 = load i64, ptr %73, align 8
  %75 = add i64 %74, %70
  store i64 %75, ptr %73, align 8
  %76 = load ptr, ptr %9, align 8
  %77 = getelementptr inbounds nuw %struct.TwoPhasePgStatRecord, ptr %76, i32 0, i32 1
  %78 = load i64, ptr %77, align 8
  %79 = load ptr, ptr %9, align 8
  %80 = getelementptr inbounds nuw %struct.TwoPhasePgStatRecord, ptr %79, i32 0, i32 2
  %81 = load i64, ptr %80, align 8
  %82 = add i64 %78, %81
  %83 = load ptr, ptr %10, align 8
  %84 = getelementptr inbounds nuw %struct.PgStat_TableStatus, ptr %83, i32 0, i32 3
  %85 = getelementptr inbounds nuw %struct.PgStat_TableCounts, ptr %84, i32 0, i32 10
  %86 = load i64, ptr %85, align 8
  %87 = add i64 %86, %82
  store i64 %87, ptr %85, align 8
  %88 = load ptr, ptr %9, align 8
  %89 = getelementptr inbounds nuw %struct.TwoPhasePgStatRecord, ptr %88, i32 0, i32 0
  %90 = load i64, ptr %89, align 8
  %91 = load ptr, ptr %9, align 8
  %92 = getelementptr inbounds nuw %struct.TwoPhasePgStatRecord, ptr %91, i32 0, i32 1
  %93 = load i64, ptr %92, align 8
  %94 = add i64 %90, %93
  %95 = load ptr, ptr %9, align 8
  %96 = getelementptr inbounds nuw %struct.TwoPhasePgStatRecord, ptr %95, i32 0, i32 2
  %97 = load i64, ptr %96, align 8
  %98 = add i64 %94, %97
  %99 = load ptr, ptr %10, align 8
  %100 = getelementptr inbounds nuw %struct.PgStat_TableStatus, ptr %99, i32 0, i32 3
  %101 = getelementptr inbounds nuw %struct.PgStat_TableCounts, ptr %100, i32 0, i32 11
  %102 = load i64, ptr %101, align 8
  %103 = add i64 %102, %98
  store i64 %103, ptr %101, align 8
  call void @llvm.lifetime.end.p0(i64 8, ptr %10) #6
  call void @llvm.lifetime.end.p0(i64 8, ptr %9) #6
  ret void
}