; Function Attrs: nounwind uwtable
define dso_local void @pgstat_twophase_postcommit(i32 noundef %0, i16 noundef zeroext %1, ptr noundef readonly captures(none) %2, i32 noundef %3) local_unnamed_addr #0 {
  %5 = getelementptr inbounds nuw i8, ptr %2, i64 48
  %6 = load i32, ptr %5, align 8
  %7 = getelementptr inbounds nuw i8, ptr %2, i64 52
  %8 = load i8, ptr %7, align 4, !range !4, !noundef !5
  %9 = trunc nuw i8 %8 to i1
  %10 = load i32, ptr @MyDatabaseId, align 4
  %11 = select i1 %9, i32 0, i32 %10
  %12 = zext i32 %6 to i64
  %13 = tail call ptr @pgstat_prep_pending_entry(i32 noundef 2, i32 noundef %11, i64 noundef %12, ptr noundef null) #9
  %14 = getelementptr inbounds nuw i8, ptr %13, i64 24
  %15 = load ptr, ptr %14, align 8
  store i32 %6, ptr %15, align 8
  %16 = getelementptr inbounds nuw i8, ptr %15, i64 4
  store i8 %8, ptr %16, align 4
  %17 = load i64, ptr %2, align 8
  %18 = getelementptr inbounds nuw i8, ptr %15, i64 40
  %19 = load i64, ptr %18, align 8
  %20 = add i64 %19, %17
  store i64 %20, ptr %18, align 8
  %21 = getelementptr inbounds nuw i8, ptr %2, i64 8
  %22 = load i64, ptr %21, align 8
  %23 = getelementptr inbounds nuw i8, ptr %15, i64 48
  %24 = load i64, ptr %23, align 8
  %25 = add i64 %24, %22
  store i64 %25, ptr %23, align 8
  %26 = getelementptr inbounds nuw i8, ptr %2, i64 16
  %27 = load i64, ptr %26, align 8
  %28 = getelementptr inbounds nuw i8, ptr %15, i64 56
  %29 = load i64, ptr %28, align 8
  %30 = add i64 %29, %27
  store i64 %30, ptr %28, align 8
  %31 = getelementptr inbounds nuw i8, ptr %2, i64 53
  %32 = load i8, ptr %31, align 1, !range !4, !noundef !5
  %33 = getelementptr inbounds nuw i8, ptr %15, i64 80
  store i8 %32, ptr %33, align 8
  %34 = trunc nuw i8 %32 to i1
  %35 = getelementptr inbounds nuw i8, ptr %15, i64 88
  br i1 %34, label %36, label %._crit_edge

._crit_edge:                                      ; preds = %4
  %.pre = load i64, ptr %35, align 8
  %.phi.trans.insert24 = getelementptr inbounds nuw i8, ptr %15, i64 96
  %.pre25 = load i64, ptr %.phi.trans.insert24, align 8
  br label %37

36:                                               ; preds = %4
  tail call void @llvm.memset.p0.i64(ptr noundef nonnull align 8 dereferenceable(16) %35, i8 0, i64 16, i1 false)
  br label %37

37:                                               ; preds = %._crit_edge, %36
  %38 = phi i64 [ %.pre25, %._crit_edge ], [ 0, %36 ]
  %39 = phi i64 [ %.pre, %._crit_edge ], [ 0, %36 ]
  %40 = load i64, ptr %2, align 8
  %41 = load i64, ptr %26, align 8
  %42 = sub i64 %40, %41
  %43 = getelementptr inbounds nuw i8, ptr %15, i64 88
  %44 = add i64 %42, %39
  store i64 %44, ptr %43, align 8
  %45 = load i64, ptr %21, align 8
  %46 = load i64, ptr %26, align 8
  %47 = add i64 %46, %45
  %48 = getelementptr inbounds nuw i8, ptr %15, i64 96
  %49 = add i64 %47, %38
  store i64 %49, ptr %48, align 8
  %50 = load i64, ptr %2, align 8
  %51 = load i64, ptr %21, align 8
  %52 = add i64 %51, %50
  %53 = load i64, ptr %26, align 8
  %54 = add i64 %52, %53
  %55 = getelementptr inbounds nuw i8, ptr %15, i64 104
  %56 = load i64, ptr %55, align 8
  %57 = add i64 %54, %56
  store i64 %57, ptr %55, align 8
  ret void
}